; Function Attrs: mustprogress sspstrong uwtable
define void @_ZN4FLAC8Metadata13VorbisComment5Entry9constructEPKcj(ptr nocapture noundef nonnull align 8 dereferenceable(60) %this, ptr noundef %field, i32 noundef %field_length) local_unnamed_addr #0 align 2 {
entry:
  %call.i = tail call i32 @FLAC__format_vorbiscomment_entry_is_legal(ptr noundef %field, i32 noundef %field_length)
  %tobool.not.i = icmp eq i32 %call.i, 0
  br i1 %tobool.not.i, label %if.then.i, label %if.end.i

if.then.i:                                        ; preds = %entry
  %is_valid_.i = getelementptr inbounds i8, ptr %this, i64 8
  store i8 0, ptr %is_valid_.i, align 8
  br label %if.end

if.end.i:                                         ; preds = %entry
  %entry2.i.i = getelementptr inbounds i8, ptr %this, i64 24
  %0 = load ptr, ptr %entry2.i.i, align 8
  %cmp.not.i.i = icmp eq ptr %0, null
  br i1 %cmp.not.i.i, label %_ZN4FLAC8Metadata13VorbisComment5Entry11clear_entryEv.exit.i, label %if.then.i.i

if.then.i.i:                                      ; preds = %if.end.i
  %entry_.i.i = getelementptr inbounds i8, ptr %this, i64 16
  tail call void @free(ptr noundef nonnull %0) #20
  store i32 0, ptr %entry_.i.i, align 8
  br label %_ZN4FLAC8Metadata13VorbisComment5Entry11clear_entryEv.exit.i

_ZN4FLAC8Metadata13VorbisComment5Entry11clear_entryEv.exit.i: ; preds = %if.then.i.i, %if.end.i
  %conv.i = zext i32 %field_length to i64
  %add.i.i = add nuw nsw i64 %conv.i, 1
  %call.i.i.i = tail call noalias noundef ptr @malloc(i64 noundef %add.i.i) #23
  store ptr %call.i.i.i, ptr %entry2.i.i, align 8
  %cmp.i = icmp eq ptr %call.i.i.i, null
  br i1 %cmp.i, label %if.then4.i, label %_ZN4FLAC8Metadata13VorbisComment5Entry9set_fieldEPKcj.exit

if.then4.i:                                       ; preds = %_ZN4FLAC8Metadata13VorbisComment5Entry11clear_entryEv.exit.i
  %is_valid_5.i = getelementptr inbounds i8, ptr %this, i64 8
  store i8 0, ptr %is_valid_5.i, align 8
  br label %if.end

_ZN4FLAC8Metadata13VorbisComment5Entry9set_fieldEPKcj.exit: ; preds = %_ZN4FLAC8Metadata13VorbisComment5Entry11clear_entryEv.exit.i
  %entry_.i = getelementptr inbounds i8, ptr %this, i64 16
  store i32 %field_length, ptr %entry_.i, align 8
  tail call void @llvm.memcpy.p0.p0.i64(ptr nonnull align 1 %call.i.i.i, ptr align 1 %field, i64 %conv.i, i1 false)
  %arrayidx.i = getelementptr inbounds i8, ptr %call.i.i.i, i64 %conv.i
  store i8 0, ptr %arrayidx.i, align 1
  tail call void @_ZN4FLAC8Metadata13VorbisComment5Entry11parse_fieldEv(ptr noundef nonnull align 8 dereferenceable(60) %this)
  %is_valid_13.phi.trans.insert.i = getelementptr inbounds i8, ptr %this, i64 8
  %.pre.i = load i8, ptr %is_valid_13.phi.trans.insert.i, align 8
  %1 = and i8 %.pre.i, 1
  %.not = icmp eq i8 %1, 0
  br i1 %.not, label %if.end, label %if.then

if.then:                                          ; preds = %_ZN4FLAC8Metadata13VorbisComment5Entry9set_fieldEPKcj.exit
  tail call void @_ZN4FLAC8Metadata13VorbisComment5Entry11parse_fieldEv(ptr noundef nonnull align 8 dereferenceable(60) %this)
  br label %if.end

if.end:                                           ; preds = %if.then4.i, %if.then.i, %if.then, %_ZN4FLAC8Metadata13VorbisComment5Entry9set_fieldEPKcj.exit
  ret void
}